; Function Attrs: mustprogress nofree norecurse nosync nounwind willreturn memory(argmem: read) uwtable
define noundef range(i32 -128, 128) i32 @_ZN6LibRaw4fcolEii(ptr noundef nonnull readonly align 8 captures(none) dereferenceable(767680) %0, i32 noundef %1, i32 noundef %2) local_unnamed_addr #0 align 2 {
  %4 = getelementptr inbounds nuw i8, ptr %0, i64 544
  %5 = load i32, ptr %4, align 8, !tbaa !6
  switch i32 %5, label %33 [
    i32 1, label %6
    i32 9, label %22
  ]

6:                                                ; preds = %3
  %7 = getelementptr inbounds nuw i8, ptr %0, i64 24
  %8 = load i16, ptr %7, align 8, !tbaa !71
  %9 = zext i16 %8 to i32
  %10 = add nsw i32 %1, %9
  %11 = and i32 %10, 15
  %12 = zext nneg i32 %11 to i64
  %13 = getelementptr inbounds nuw i8, ptr %0, i64 26
  %14 = load i16, ptr %13, align 2, !tbaa !72
  %15 = zext i16 %14 to i32
  %16 = add nsw i32 %2, %15
  %17 = and i32 %16, 15
  %18 = zext nneg i32 %17 to i64
  %19 = getelementptr inbounds nuw [16 x [16 x i8]], ptr @_ZZN6LibRaw4fcolEiiE6filter, i64 0, i64 %12, i64 %18
  %20 = load i8, ptr %19, align 1, !tbaa !73
  %21 = sext i8 %20 to i32
  br label %41

22:                                               ; preds = %3
  %23 = getelementptr inbounds nuw i8, ptr %0, i64 548
  %24 = add nsw i32 %1, 6
  %25 = srem i32 %24, 6
  %26 = sext i32 %25 to i64
  %27 = add nsw i32 %2, 6
  %28 = srem i32 %27, 6
  %29 = sext i32 %28 to i64
  %30 = getelementptr inbounds [6 x [6 x i8]], ptr %23, i64 0, i64 %26, i64 %29
  %31 = load i8, ptr %30, align 1, !tbaa !73
  %32 = sext i8 %31 to i32
  br label %41

33:                                               ; preds = %3
  %34 = shl i32 %1, 1
  %35 = and i32 %34, 14
  %36 = and i32 %2, 1
  %37 = or disjoint i32 %35, %36
  %38 = shl nuw nsw i32 %37, 1
  %39 = lshr i32 %5, %38
  %40 = and i32 %39, 3
  br label %41

41:                                               ; preds = %33, %22, %6
  %.0 = phi i32 [ %21, %6 ], [ %32, %22 ], [ %40, %33 ]
  ret i32 %.0
}